target datalayout = "e-m:e-p270:32:32-p271:32:32-p272:64:64-i64:64-i128:128-f80:128-n8:16:32:64-S128"
target triple = "x86_64-pc-linux-gnu"

@proto_register_memcache.ett = internal global [2 x ptr] [ptr @ett_memcache, ptr @ett_extras], align 16
@.str.96 = private unnamed_addr constant [18 x i8] c"Memcache Protocol\00", align 1
@.str.97 = private unnamed_addr constant [9 x i8] c"MEMCACHE\00", align 1
@.str.98 = private unnamed_addr constant [9 x i8] c"memcache\00", align 1
@proto_memcache = internal global i32 0, align 4
@.str.99 = private unnamed_addr constant [13 x i8] c"memcache.tcp\00", align 1
@memcache_tcp_handle = internal global ptr null, align 8
@.str.100 = private unnamed_addr constant [13 x i8] c"memcache.udp\00", align 1
@memcache_udp_handle = internal global ptr null, align 8
@.str.101 = private unnamed_addr constant [18 x i8] c"desegment_headers\00", align 1
@.str.102 = private unnamed_addr constant [59 x i8] c"Reassemble MEMCACHE headers spanning multiple TCP segments\00", align 1
@.str.103 = private unnamed_addr constant [221 x i8] c"Whether the MEMCACHE dissector should reassemble headers of a request spanning multiple TCP segments. To use this option, you must also enable \22Allow subdissectors to reassemble TCP streams\22 in the TCP protocol settings.\00", align 1
@memcache_desegment_headers = internal global i8 1, align 1
@.str.104 = private unnamed_addr constant [15 x i8] c"desegment_pdus\00", align 1
@.str.105 = private unnamed_addr constant [47 x i8] c"Reassemble PDUs spanning multiple TCP segments\00", align 1
@.str.106 = private unnamed_addr constant [205 x i8] c"Whether the memcache dissector should reassemble PDUs spanning multiple TCP segments. To use this option, you must also enable \22Allow subdissectors to reassemble TCP streams\22 in the TCP protocol settings.\00", align 1
@memcache_desegment_body = internal global i8 1, align 1

; Function Attrs: null_pointer_is_valid sspstrong uwtable
define hidden void @proto_register_memcache() #0 {
  %1 = alloca ptr, align 8
  %2 = alloca ptr, align 8
  call void @llvm.lifetime.start.p0(i64 8, ptr %1) #9
  call void @llvm.lifetime.start.p0(i64 8, ptr %2) #9
  %3 = call i32 @proto_register_protocol(ptr noundef @.str.96, ptr noundef @.str.97, ptr noundef @.str.98)
  store i32 %3, ptr @proto_memcache, align 4
  %4 = load i32, ptr @proto_memcache, align 4
  %5 = call ptr @register_dissector(ptr noundef @.str.99, ptr noundef @dissect_memcache_tcp, i32 noundef %4)
  store ptr %5, ptr @memcache_tcp_handle, align 8
  %6 = load i32, ptr @proto_memcache, align 4
  %7 = call ptr @register_dissector(ptr noundef @.str.100, ptr noundef @dissect_memcache_udp, i32 noundef %6)
  store ptr %7, ptr @memcache_udp_handle, align 8
  %8 = load i32, ptr @proto_memcache, align 4
  call void @proto_register_field_array(i32 noundef %8, ptr noundef @proto_register_memcache.hf, i32 noundef 30)
  call void @proto_register_subtree_array(ptr noundef @proto_register_memcache.ett, i32 noundef 2)
  %9 = load i32, ptr @proto_memcache, align 4
  %10 = call ptr @expert_register_protocol(i32 noundef %9)
  store ptr %10, ptr %2, align 8
  %11 = load ptr, ptr %2, align 8
  call void @expert_register_field_array(ptr noundef %11, ptr noundef @proto_register_memcache.ei, i32 noundef 11)
  %12 = load i32, ptr @proto_memcache, align 4
  %13 = call ptr @prefs_register_protocol(i32 noundef %12, ptr noundef null)
  store ptr %13, ptr %1, align 8
  %14 = load ptr, ptr %1, align 8
  call void @prefs_register_bool_preference(ptr noundef %14, ptr noundef @.str.101, ptr noundef @.str.102, ptr noundef @.str.103, ptr noundef @memcache_desegment_headers)
  %15 = load ptr, ptr %1, align 8
  call void @prefs_register_bool_preference(ptr noundef %15, ptr noundef @.str.104, ptr noundef @.str.105, ptr noundef @.str.106, ptr noundef @memcache_desegment_body)
  call void @llvm.lifetime.end.p0(i64 8, ptr %2) #9
  call void @llvm.lifetime.end.p0(i64 8, ptr %1) #9
  ret void
}