; Function Attrs: null_pointer_is_valid sspstrong uwtable
define hidden void @proto_register_memcache() local_unnamed_addr #0 {
  %1 = tail call i32 @proto_register_protocol(ptr noundef nonnull @.str.96, ptr noundef nonnull @.str.97, ptr noundef nonnull @.str.98)
  store i32 %1, ptr @proto_memcache, align 4
  %2 = tail call ptr @register_dissector(ptr noundef nonnull @.str.99, ptr noundef nonnull @dissect_memcache_tcp, i32 noundef %1)
  store ptr %2, ptr @memcache_tcp_handle, align 8
  %3 = load i32, ptr @proto_memcache, align 4
  %4 = tail call ptr @register_dissector(ptr noundef nonnull @.str.100, ptr noundef nonnull @dissect_memcache_udp, i32 noundef %3)
  store ptr %4, ptr @memcache_udp_handle, align 8
  %5 = load i32, ptr @proto_memcache, align 4
  tail call void @proto_register_field_array(i32 noundef %5, ptr noundef nonnull @proto_register_memcache.hf, i32 noundef 30)
  tail call void @proto_register_subtree_array(ptr noundef nonnull @proto_register_memcache.ett, i32 noundef 2)
  %6 = load i32, ptr @proto_memcache, align 4
  %7 = tail call ptr @expert_register_protocol(i32 noundef %6)
  tail call void @expert_register_field_array(ptr noundef %7, ptr noundef nonnull @proto_register_memcache.ei, i32 noundef 11)
  %8 = load i32, ptr @proto_memcache, align 4
  %9 = tail call ptr @prefs_register_protocol(i32 noundef %8, ptr noundef null)
  tail call void @prefs_register_bool_preference(ptr noundef %9, ptr noundef nonnull @.str.101, ptr noundef nonnull @.str.102, ptr noundef nonnull @.str.103, ptr noundef nonnull @memcache_desegment_headers)
  tail call void @prefs_register_bool_preference(ptr noundef %9, ptr noundef nonnull @.str.104, ptr noundef nonnull @.str.105, ptr noundef nonnull @.str.106, ptr noundef nonnull @memcache_desegment_body)
  ret void
}